; Function Attrs: nounwind uwtable
define range(i32 -2, 1) i32 @KINSetScaledStepTol(ptr noundef %0, double noundef %1) local_unnamed_addr #0 {
  %3 = icmp eq ptr %0, null
  br i1 %3, label %4, label %5

4:                                                ; preds = %2
  tail call void (ptr, i32, i32, ptr, ptr, ptr, ...) @KINProcessError(ptr noundef null, i32 noundef -1, i32 noundef 779, ptr noundef nonnull @__func__.KINSetScaledStepTol, ptr noundef nonnull @.str, ptr noundef nonnull @.str.1) #9
  br label %17

5:                                                ; preds = %2
  %6 = fcmp olt double %1, 0.000000e+00
  br i1 %6, label %7, label %8

7:                                                ; preds = %5
  tail call void (ptr, i32, i32, ptr, ptr, ptr, ...) @KINProcessError(ptr noundef nonnull %0, i32 noundef -2, i32 noundef 787, ptr noundef nonnull @__func__.KINSetScaledStepTol, ptr noundef nonnull @.str, ptr noundef nonnull @.str.18) #9
  br label %17

8:                                                ; preds = %5
  %9 = fcmp oeq double %1, 0.000000e+00
  br i1 %9, label %10, label %15

10:                                               ; preds = %8
  %11 = getelementptr inbounds nuw i8, ptr %0, i64 8
  %12 = load double, ptr %11, align 8, !tbaa !40
  %13 = tail call double @SUNRpowerR(double noundef %12, double noundef 0x3FE5555555555556) #9
  %14 = getelementptr inbounds nuw i8, ptr %0, i64 40
  store double %13, ptr %14, align 8, !tbaa !44
  br label %17

15:                                               ; preds = %8
  %16 = getelementptr inbounds nuw i8, ptr %0, i64 40
  store double %1, ptr %16, align 8, !tbaa !44
  br label %17

17:                                               ; preds = %10, %15, %7, %4
  %.0 = phi i32 [ -1, %4 ], [ -2, %7 ], [ 0, %15 ], [ 0, %10 ]
  ret i32 %.0
}